target datalayout = "e-m:e-p270:32:32-p271:32:32-p272:64:64-i64:64-i128:128-f80:128-n8:16:32:64-S128"
target triple = "x86_64-pc-linux-gnu"

%"class.std::basic_ostream" = type { ptr, %"class.std::basic_ios" }
%"class.std::basic_ios" = type { %"class.std::ios_base", ptr, i8, i8, ptr, ptr, ptr, ptr }
%"class.std::ios_base" = type { ptr, i64, i64, i32, i32, i32, ptr, %"struct.std::ios_base::_Words", [8 x %"struct.std::ios_base::_Words"], i32, ptr, %"class.std::locale" }
%"struct.std::ios_base::_Words" = type { ptr, i64 }
%"class.std::locale" = type { ptr }
%class.VOptionBool = type { i8 }
%class.VTimescale = type { i8 }
%struct.V3ParseBisonYYSType = type { ptr, ptr, i32, %class.VBaseOverride, %union.anon }
%class.VBaseOverride = type { i8 }
%union.anon = type { ptr }
%"class.std::deque.19" = type { %"class.std::_Deque_base.20" }
%"class.std::_Deque_base.20" = type { %"struct.std::_Deque_base<std::__cxx11::basic_string<char>, std::allocator<std::__cxx11::basic_string<char>>>::_Deque_impl" }
%"struct.std::_Deque_base<std::__cxx11::basic_string<char>, std::allocator<std::__cxx11::basic_string<char>>>::_Deque_impl" = type { %"struct.std::_Deque_base<std::__cxx11::basic_string<char>, std::allocator<std::__cxx11::basic_string<char>>>::_Deque_impl_data" }
%"struct.std::_Deque_base<std::__cxx11::basic_string<char>, std::allocator<std::__cxx11::basic_string<char>>>::_Deque_impl_data" = type { ptr, i64, %"struct.std::_Deque_iterator.24", %"struct.std::_Deque_iterator.24" }
%"struct.std::_Deque_iterator.24" = type { ptr, ptr, ptr, ptr }
%"struct.std::_Deque_iterator.6" = type { ptr, ptr, ptr, ptr }
%"struct.std::_Deque_iterator.12" = type { ptr, ptr, ptr, ptr }
%class.V3ParseImp = type <{ ptr, ptr, ptr, ptr, ptr, ptr, i8, [3 x i8], i32, i32, %class.VOptionBool, [3 x i8], i32, i8, [3 x i8], %struct.V3ParseBisonYYSType, %"class.std::deque", %"class.std::deque.1", %"class.std::deque.7", %"class.std::deque.13", %"class.std::deque.19", i64, ptr, %class.VTimescale, [7 x i8] }>
%"class.std::deque" = type { %"class.std::_Deque_base" }
%"class.std::_Deque_base" = type { %"struct.std::_Deque_base<V3ParseBisonYYSType, std::allocator<V3ParseBisonYYSType>>::_Deque_impl" }
%"struct.std::_Deque_base<V3ParseBisonYYSType, std::allocator<V3ParseBisonYYSType>>::_Deque_impl" = type { %"struct.std::_Deque_base<V3ParseBisonYYSType, std::allocator<V3ParseBisonYYSType>>::_Deque_impl_data" }
%"struct.std::_Deque_base<V3ParseBisonYYSType, std::allocator<V3ParseBisonYYSType>>::_Deque_impl_data" = type { ptr, i64, %"struct.std::_Deque_iterator", %"struct.std::_Deque_iterator" }
%"struct.std::_Deque_iterator" = type { ptr, ptr, ptr, ptr }
%"class.std::deque.1" = type { %"class.std::_Deque_base.2" }
%"class.std::_Deque_base.2" = type { %"struct.std::_Deque_base<std::__cxx11::basic_string<char> *, std::allocator<std::__cxx11::basic_string<char> *>>::_Deque_impl" }
%"struct.std::_Deque_base<std::__cxx11::basic_string<char> *, std::allocator<std::__cxx11::basic_string<char> *>>::_Deque_impl" = type { %"struct.std::_Deque_base<std::__cxx11::basic_string<char> *, std::allocator<std::__cxx11::basic_string<char> *>>::_Deque_impl_data" }
%"struct.std::_Deque_base<std::__cxx11::basic_string<char> *, std::allocator<std::__cxx11::basic_string<char> *>>::_Deque_impl_data" = type { ptr, i64, %"struct.std::_Deque_iterator.6", %"struct.std::_Deque_iterator.6" }
%"class.std::deque.7" = type { %"class.std::_Deque_base.8" }
%"class.std::_Deque_base.8" = type { %"struct.std::_Deque_base<V3Number *, std::allocator<V3Number *>>::_Deque_impl" }
%"struct.std::_Deque_base<V3Number *, std::allocator<V3Number *>>::_Deque_impl" = type { %"struct.std::_Deque_base<V3Number *, std::allocator<V3Number *>>::_Deque_impl_data" }
%"struct.std::_Deque_base<V3Number *, std::allocator<V3Number *>>::_Deque_impl_data" = type { ptr, i64, %"struct.std::_Deque_iterator.12", %"struct.std::_Deque_iterator.12" }
%"class.std::deque.13" = type { %"class.std::_Deque_base.14" }
%"class.std::_Deque_base.14" = type { %"struct.std::_Deque_base<FileLine, std::allocator<FileLine>>::_Deque_impl" }
%"struct.std::_Deque_base<FileLine, std::allocator<FileLine>>::_Deque_impl" = type { %"struct.std::_Deque_base<FileLine, std::allocator<FileLine>>::_Deque_impl_data" }
%"struct.std::_Deque_base<FileLine, std::allocator<FileLine>>::_Deque_impl_data" = type { ptr, i64, %"struct.std::_Deque_iterator.18", %"struct.std::_Deque_iterator.18" }
%"struct.std::_Deque_iterator.18" = type { ptr, ptr, ptr, ptr }

@_ZSt4cout = external global %"class.std::basic_ostream", align 8
@yylval = external global %struct.V3ParseBisonYYSType, align 8
@.str.63 = private unnamed_addr constant [15 x i8] c"tokenToBison  \00", align 1

; Function Attrs: inlinehint mustprogress nounwind uwtable
define linkonce_odr dso_local noundef i32 @_ZStorSt12_Ios_IostateS_(i32 noundef %0, i32 noundef %1) #11 comdat {
  %3 = alloca i32, align 4
  %4 = alloca i32, align 4
  store i32 %0, ptr %3, align 4, !tbaa !851
  store i32 %1, ptr %4, align 4, !tbaa !851
  %5 = load i32, ptr %3, align 4, !tbaa !851
  %6 = load i32, ptr %4, align 4, !tbaa !851
  %7 = or i32 %5, %6
  ret i32 %7
}

; Function Attrs: mustprogress nounwind uwtable
define available_externally noundef i32 @_ZNKSt9basic_iosIcSt11char_traitsIcEE7rdstateEv(ptr noundef nonnull align 8 dereferenceable(264) %0) #4 align 2 {
  %2 = alloca ptr, align 8
  store ptr %0, ptr %2, align 8, !tbaa !259
  %3 = load ptr, ptr %2, align 8
  %4 = getelementptr inbounds nuw %"class.std::ios_base", ptr %3, i32 0, i32 5
  %5 = load i32, ptr %4, align 8, !tbaa !852
  ret i32 %5
}

; Function Attrs: mustprogress nounwind uwtable
define linkonce_odr dso_local noundef i64 @_ZNSt11char_traitsIcE6lengthEPKc(ptr noundef %0) #4 comdat align 2 {
  %2 = alloca ptr, align 8
  store ptr %0, ptr %2, align 8, !tbaa !45
  %3 = load ptr, ptr %2, align 8, !tbaa !45
  %4 = call i64 @strlen(ptr noundef %3) #3
  ret i64 %4
}

; Function Attrs: mustprogress uwtable
define available_externally void @_ZNSt9basic_iosIcSt11char_traitsIcEE8setstateESt12_Ios_Iostate(ptr noundef nonnull align 8 dereferenceable(264) %0, i32 noundef %1) #8 align 2 {
  %3 = alloca ptr, align 8
  %4 = alloca i32, align 4
  store ptr %0, ptr %3, align 8, !tbaa !259
  store i32 %1, ptr %4, align 4, !tbaa !851
  %5 = load ptr, ptr %3, align 8
  %6 = call noundef i32 @_ZNKSt9basic_iosIcSt11char_traitsIcEE7rdstateEv(ptr noundef nonnull align 8 dereferenceable(264) %5)
  %7 = load i32, ptr %4, align 4, !tbaa !851
  %8 = call noundef i32 @_ZStorSt12_Ios_IostateS_(i32 noundef %6, i32 noundef %7)
  call void @_ZNSt9basic_iosIcSt11char_traitsIcEE5clearESt12_Ios_Iostate(ptr noundef nonnull align 8 dereferenceable(264) %5, i32 noundef %8)
  ret void
}

; Function Attrs: mustprogress uwtable
define available_externally noundef nonnull align 8 dereferenceable(8) ptr @_ZNSolsEPFRSoS_E(ptr noundef nonnull align 8 dereferenceable(8) %0, ptr noundef %1) #8 align 2 {
  %3 = alloca ptr, align 8
  %4 = alloca ptr, align 8
  store ptr %0, ptr %3, align 8, !tbaa !43
  store ptr %1, ptr %4, align 8, !tbaa !16
  %5 = load ptr, ptr %3, align 8
  %6 = load ptr, ptr %4, align 8, !tbaa !16
  %7 = call noundef nonnull align 8 dereferenceable(8) ptr %6(ptr noundef nonnull align 8 dereferenceable(8) %5)
  ret ptr %7
}

; Function Attrs: inlinehint mustprogress uwtable
define available_externally noundef nonnull align 8 dereferenceable(8) ptr @_ZStlsISt11char_traitsIcEERSt13basic_ostreamIcT_ES5_PKc(ptr noundef nonnull align 8 dereferenceable(8) %0, ptr noundef %1) #10 {
  %3 = alloca ptr, align 8
  %4 = alloca ptr, align 8
  store ptr %0, ptr %3, align 8, !tbaa !43
  store ptr %1, ptr %4, align 8, !tbaa !45
  %5 = load ptr, ptr %4, align 8, !tbaa !45
  %6 = icmp ne ptr %5, null
  br i1 %6, label %13, label %7

7:                                                ; preds = %2
  %8 = load ptr, ptr %3, align 8, !tbaa !43
  %9 = load ptr, ptr %8, align 8, !tbaa !47
  %10 = getelementptr i8, ptr %9, i64 -24
  %11 = load i64, ptr %10, align 8
  %12 = getelementptr inbounds i8, ptr %8, i64 %11
  call void @_ZNSt9basic_iosIcSt11char_traitsIcEE8setstateESt12_Ios_Iostate(ptr noundef nonnull align 8 dereferenceable(264) %12, i32 noundef 1)
  br label %19

13:                                               ; preds = %2
  %14 = load ptr, ptr %3, align 8, !tbaa !43
  %15 = load ptr, ptr %4, align 8, !tbaa !45
  %16 = load ptr, ptr %4, align 8, !tbaa !45
  %17 = call noundef i64 @_ZNSt11char_traitsIcE6lengthEPKc(ptr noundef %16)
  %18 = call noundef nonnull align 8 dereferenceable(8) ptr @_ZSt16__ostream_insertIcSt11char_traitsIcEERSt13basic_ostreamIT_T0_ES6_PKS3_l(ptr noundef nonnull align 8 dereferenceable(8) %14, ptr noundef %15, i64 noundef %17)
  br label %19

19:                                               ; preds = %13, %7
  %20 = load ptr, ptr %3, align 8, !tbaa !43
  ret ptr %20
}

; Function Attrs: mustprogress uwtable
define dso_local noundef i32 @_ZN10V3ParseImp12tokenToBisonEv(ptr noundef nonnull align 8 dereferenceable(528) %0) #8 align 2 {
  %2 = alloca ptr, align 8
  store ptr %0, ptr %2, align 8, !tbaa !4
  %3 = load ptr, ptr %2, align 8
  call void @_ZN10V3ParseImp16tokenPipelineSymEv(ptr noundef nonnull align 8 dereferenceable(528) %3)
  %4 = load ptr, ptr @yylval, align 8, !tbaa !280
  %5 = getelementptr inbounds nuw %class.V3ParseImp, ptr %3, i32 0, i32 5
  store ptr %4, ptr %5, align 8, !tbaa !251
  %6 = getelementptr inbounds nuw %class.V3ParseImp, ptr %3, i32 0, i32 15
  call void @llvm.memcpy.p0.p0.i64(ptr align 8 %6, ptr align 8 @yylval, i64 32, i1 false), !tbaa.struct !274
  %7 = call noundef i32 @_ZN10V3ParseImp5debugEv()
  %8 = icmp sge i32 %7, 6
  br i1 %8, label %15, label %9

9:                                                ; preds = %1
  %10 = call noundef i32 @_ZN10V3ParseImp9debugFlexEv()
  %11 = icmp sge i32 %10, 6
  br i1 %11, label %15, label %12

12:                                               ; preds = %9
  %13 = call noundef i32 @_ZN10V3ParseImp10debugBisonEv()
  %14 = icmp sge i32 %13, 6
  br i1 %14, label %15, label %19

15:                                               ; preds = %12, %9, %1
  %16 = call noundef nonnull align 8 dereferenceable(8) ptr @_ZStlsISt11char_traitsIcEERSt13basic_ostreamIcT_ES5_PKc(ptr noundef nonnull align 8 dereferenceable(8) @_ZSt4cout, ptr noundef @.str.63)
  %17 = call noundef nonnull align 8 dereferenceable(8) ptr @_ZlsRSoRK19V3ParseBisonYYSType(ptr noundef nonnull align 8 dereferenceable(8) %16, ptr noundef nonnull align 8 dereferenceable(32) @yylval)
  %18 = call noundef nonnull align 8 dereferenceable(8) ptr @_ZNSolsEPFRSoS_E(ptr noundef nonnull align 8 dereferenceable(8) %17, ptr noundef @_ZSt4endlIcSt11char_traitsIcEERSt13basic_ostreamIT_T0_ES6_)
  br label %19

19:                                               ; preds = %15, %12
  %20 = load i32, ptr getelementptr inbounds nuw (%struct.V3ParseBisonYYSType, ptr @yylval, i32 0, i32 2), align 8, !tbaa !266
  ret i32 %20
}