; Function Attrs: mustprogress uwtable
define dso_local noundef i32 @_ZN10V3ParseImp12tokenToBisonEv(ptr noundef nonnull align 8 dereferenceable(528) %0) #8 align 2 {
  tail call void @_ZN10V3ParseImp16tokenPipelineSymEv(ptr noundef nonnull align 8 dereferenceable(528) %0)
  %2 = load ptr, ptr @yylval, align 8, !tbaa !502
  %3 = getelementptr inbounds nuw i8, ptr %0, i64 40
  store ptr %2, ptr %3, align 8, !tbaa !360
  %4 = getelementptr inbounds nuw i8, ptr %0, i64 72
  tail call void @llvm.memcpy.p0.p0.i64(ptr noundef nonnull align 8 dereferenceable(32) %4, ptr noundef nonnull align 8 dereferenceable(32) @yylval, i64 32, i1 false), !tbaa.struct !437
  %5 = tail call noundef i32 @_ZN10V3ParseImp5debugEv()
  %6 = icmp sgt i32 %5, 5
  br i1 %6, label %13, label %7

7:                                                ; preds = %1
  %8 = tail call noundef i32 @_ZN10V3ParseImp9debugFlexEv()
  %9 = icmp sgt i32 %8, 5
  br i1 %9, label %13, label %10

10:                                               ; preds = %7
  %11 = tail call noundef i32 @_ZN10V3ParseImp10debugBisonEv()
  %12 = icmp sgt i32 %11, 5
  br i1 %12, label %13, label %35

13:                                               ; preds = %10, %7, %1
  %14 = tail call noundef nonnull align 8 dereferenceable(8) ptr @_ZSt16__ostream_insertIcSt11char_traitsIcEERSt13basic_ostreamIT_T0_ES6_PKS3_l(ptr noundef nonnull align 8 dereferenceable(8) @_ZSt4cout, ptr noundef nonnull @.str.63, i64 noundef 14)
  %15 = tail call noundef nonnull align 8 dereferenceable(8) ptr @_ZlsRSoRK19V3ParseBisonYYSType(ptr noundef nonnull align 8 dereferenceable(8) @_ZSt4cout, ptr noundef nonnull align 8 dereferenceable(32) @yylval)
  %16 = load ptr, ptr @_ZSt4cout, align 8, !tbaa !241
  %17 = getelementptr i8, ptr %16, i64 -24
  %18 = load i64, ptr %17, align 8
  %19 = getelementptr inbounds i8, ptr @_ZSt4cout, i64 %18
  %20 = getelementptr inbounds nuw i8, ptr %19, i64 240
  %21 = load ptr, ptr %20, align 8, !tbaa !331
  %.not.i.i.i = icmp eq ptr %21, null
  br i1 %.not.i.i.i, label %22, label %_ZSt13__check_facetISt5ctypeIcEERKT_PS3_.exit.i.i

22:                                               ; preds = %13
  tail call void @_ZSt16__throw_bad_castv() #29
  unreachable

_ZSt13__check_facetISt5ctypeIcEERKT_PS3_.exit.i.i: ; preds = %13
  %23 = getelementptr inbounds nuw i8, ptr %21, i64 56
  %24 = load i8, ptr %23, align 8, !tbaa !346
  %.not.i1.i.i = icmp eq i8 %24, 0
  br i1 %.not.i1.i.i, label %28, label %25

25:                                               ; preds = %_ZSt13__check_facetISt5ctypeIcEERKT_PS3_.exit.i.i
  %26 = getelementptr inbounds nuw i8, ptr %21, i64 67
  %27 = load i8, ptr %26, align 1, !tbaa !51
  br label %_ZSt4endlIcSt11char_traitsIcEERSt13basic_ostreamIT_T0_ES6_.exit

28:                                               ; preds = %_ZSt13__check_facetISt5ctypeIcEERKT_PS3_.exit.i.i
  tail call void @_ZNKSt5ctypeIcE13_M_widen_initEv(ptr noundef nonnull align 8 dereferenceable(570) %21)
  %29 = load ptr, ptr %21, align 8, !tbaa !241
  %30 = getelementptr inbounds nuw i8, ptr %29, i64 48
  %31 = load ptr, ptr %30, align 8
  %32 = tail call noundef signext i8 %31(ptr noundef nonnull align 8 dereferenceable(570) %21, i8 noundef signext 10)
  br label %_ZSt4endlIcSt11char_traitsIcEERSt13basic_ostreamIT_T0_ES6_.exit

_ZSt4endlIcSt11char_traitsIcEERSt13basic_ostreamIT_T0_ES6_.exit: ; preds = %25, %28
  %.0.i.i.i = phi i8 [ %27, %25 ], [ %32, %28 ]
  %33 = tail call noundef nonnull align 8 dereferenceable(8) ptr @_ZNSo3putEc(ptr noundef nonnull align 8 dereferenceable(8) @_ZSt4cout, i8 noundef signext %.0.i.i.i)
  %34 = tail call noundef nonnull align 8 dereferenceable(8) ptr @_ZNSo5flushEv(ptr noundef nonnull align 8 dereferenceable(8) %33)
  br label %35

35:                                               ; preds = %_ZSt4endlIcSt11char_traitsIcEERSt13basic_ostreamIT_T0_ES6_.exit, %10
  %36 = load i32, ptr getelementptr inbounds nuw (i8, ptr @yylval, i64 16), align 8, !tbaa !450
  ret i32 %36
}